target datalayout = "e-m:e-p270:32:32-p271:32:32-p272:64:64-i64:64-i128:128-f80:128-n8:16:32:64-S128"
target triple = "x86_64-pc-linux-gnu"

%struct._lv_textarea_t = type { %struct._lv_obj_t, ptr, ptr, ptr, ptr, ptr, i32, i32, %struct.anon, i32, i32, i8 }
%struct._lv_obj_t = type { ptr, ptr, ptr, ptr, ptr, %struct.lv_area_t, i32, i16, i16 }
%struct.lv_area_t = type { i32, i32, i32, i32 }
%struct.anon = type { i32, i32, %struct.lv_area_t, i32, i8 }
%union.lv_style_value_t = type { ptr }
%struct.lv_font_glyph_dsc_t = type { ptr, i16, i16, i16, i16, i16, i32, i8, %union.anon, ptr }
%union.anon = type { ptr }

@.str.2 = private unnamed_addr constant [4 x i8] c"\E2\80\A2\00", align 1
@.str.3 = private unnamed_addr constant [2 x i8] c"*\00", align 1

; Function Attrs: inlinehint nounwind uwtable
define internal ptr @lv_obj_get_style_text_font(ptr noundef %0, i32 noundef %1) #4 {
  %3 = alloca ptr, align 8
  %4 = alloca i32, align 4
  %5 = alloca %union.lv_style_value_t, align 8
  store ptr %0, ptr %3, align 8, !tbaa !8
  store i32 %1, ptr %4, align 4, !tbaa !32
  call void @llvm.lifetime.start.p0(i64 8, ptr %5) #6
  %6 = load ptr, ptr %3, align 8, !tbaa !8
  %7 = load i32, ptr %4, align 4, !tbaa !32
  %8 = call ptr @lv_obj_get_style_prop(ptr noundef %6, i32 noundef %7, i8 noundef zeroext 90)
  %9 = getelementptr inbounds nuw %union.lv_style_value_t, ptr %5, i32 0, i32 0
  store ptr %8, ptr %9, align 8
  %10 = load ptr, ptr %5, align 8, !tbaa !35
  call void @llvm.lifetime.end.p0(i64 8, ptr %5) #6
  ret ptr %10
}

; Function Attrs: nounwind uwtable
define ptr @lv_textarea_get_password_bullet(ptr noundef %0) #0 {
  %2 = alloca ptr, align 8
  %3 = alloca ptr, align 8
  %4 = alloca ptr, align 8
  %5 = alloca i32, align 4
  %6 = alloca %struct.lv_font_glyph_dsc_t, align 8
  %7 = alloca ptr, align 8
  store ptr %0, ptr %3, align 8, !tbaa !8
  br label %8

8:                                                ; preds = %1
  %9 = load ptr, ptr %3, align 8, !tbaa !8
  %10 = icmp ne ptr %9, null
  br i1 %10, label %15, label %11

11:                                               ; preds = %8
  br label %12

12:                                               ; preds = %11
  br label %13

13:                                               ; preds = %12
  br label %14

14:                                               ; preds = %13, %14
  br label %14

15:                                               ; preds = %8
  br label %16

16:                                               ; preds = %15
  call void @llvm.lifetime.start.p0(i64 8, ptr %4) #6
  %17 = load ptr, ptr %3, align 8, !tbaa !8
  store ptr %17, ptr %4, align 8, !tbaa !10
  %18 = load ptr, ptr %4, align 8, !tbaa !10
  %19 = getelementptr inbounds nuw %struct._lv_textarea_t, ptr %18, i32 0, i32 4
  %20 = load ptr, ptr %19, align 8, !tbaa !22
  %21 = icmp ne ptr %20, null
  br i1 %21, label %22, label %26

22:                                               ; preds = %16
  %23 = load ptr, ptr %4, align 8, !tbaa !10
  %24 = getelementptr inbounds nuw %struct._lv_textarea_t, ptr %23, i32 0, i32 4
  %25 = load ptr, ptr %24, align 8, !tbaa !22
  store ptr %25, ptr %2, align 8
  store i32 1, ptr %5, align 4
  br label %34

26:                                               ; preds = %16
  call void @llvm.lifetime.start.p0(i64 48, ptr %6) #6
  call void @llvm.lifetime.start.p0(i64 8, ptr %7) #6
  %27 = load ptr, ptr %3, align 8, !tbaa !8
  %28 = call ptr @lv_obj_get_style_text_font(ptr noundef %27, i32 noundef 0)
  store ptr %28, ptr %7, align 8, !tbaa !41
  %29 = load ptr, ptr %7, align 8, !tbaa !41
  %30 = call zeroext i1 @lv_font_get_glyph_dsc(ptr noundef %29, ptr noundef %6, i32 noundef 8226, i32 noundef 0)
  br i1 %30, label %31, label %32

31:                                               ; preds = %26
  store ptr @.str.2, ptr %2, align 8
  store i32 1, ptr %5, align 4
  br label %33

32:                                               ; preds = %26
  store ptr @.str.3, ptr %2, align 8
  store i32 1, ptr %5, align 4
  br label %33

33:                                               ; preds = %32, %31
  call void @llvm.lifetime.end.p0(i64 8, ptr %7) #6
  call void @llvm.lifetime.end.p0(i64 48, ptr %6) #6
  br label %34

34:                                               ; preds = %33, %22
  call void @llvm.lifetime.end.p0(i64 8, ptr %4) #6
  %35 = load ptr, ptr %2, align 8
  ret ptr %35
}