; Function Attrs: nounwind uwtable
define nonnull ptr @lv_textarea_get_password_bullet(ptr noundef %0) local_unnamed_addr #0 {
  %2 = alloca %struct.lv_font_glyph_dsc_t, align 8
  %.not = icmp eq ptr %0, null
  br i1 %.not, label %.preheader, label %3

.preheader:                                       ; preds = %1, %.preheader
  br label %.preheader

3:                                                ; preds = %1
  %4 = getelementptr inbounds nuw i8, ptr %0, i64 88
  %5 = load ptr, ptr %4, align 8, !tbaa !24
  %.not9 = icmp eq ptr %5, null
  br i1 %.not9, label %6, label %9

6:                                                ; preds = %3
  call void @llvm.lifetime.start.p0(i64 48, ptr nonnull %2) #10
  %7 = tail call ptr @lv_obj_get_style_prop(ptr noundef nonnull %0, i32 noundef 0, i8 noundef zeroext 90) #10
  %8 = call zeroext i1 @lv_font_get_glyph_dsc(ptr noundef %7, ptr noundef nonnull %2, i32 noundef 8226, i32 noundef 0) #10
  %.str.2..str.3 = select i1 %8, ptr @.str.2, ptr @.str.3
  call void @llvm.lifetime.end.p0(i64 48, ptr nonnull %2) #10
  br label %9

9:                                                ; preds = %3, %6
  %.0 = phi ptr [ %.str.2..str.3, %6 ], [ %5, %3 ]
  ret ptr %.0
}